target datalayout = "e-m:e-p270:32:32-p271:32:32-p272:64:64-i64:64-i128:128-f80:128-n8:16:32:64-S128"
target triple = "x86_64-pc-linux-gnu"

%struct._SPI_connection = type { i64, ptr, i32, %struct.slist_head, ptr, ptr, ptr, i32, ptr, i8, i8, i64, ptr, i32 }
%struct.slist_head = type { %struct.slist_node }
%struct.slist_node = type { ptr }
%struct._SPI_plan = type { i32, i8, i8, ptr, ptr, i32, i32, i32, ptr, ptr, ptr }

@SPI_result = dso_local global i32 0, align 4
@_SPI_current = internal global ptr null, align 8
@CurrentMemoryContext = external global ptr, align 8

; Function Attrs: inlinehint nounwind uwtable
define internal ptr @MemoryContextSwitchTo(ptr noundef %0) #4 {
  %2 = alloca ptr, align 8
  %3 = alloca ptr, align 8
  store ptr %0, ptr %2, align 8
  call void @llvm.lifetime.start.p0(i64 8, ptr %3) #9
  %4 = load ptr, ptr @CurrentMemoryContext, align 8
  store ptr %4, ptr %3, align 8
  %5 = load ptr, ptr %2, align 8
  store ptr %5, ptr @CurrentMemoryContext, align 8
  %6 = load ptr, ptr %3, align 8
  call void @llvm.lifetime.end.p0(i64 8, ptr %3) #9
  ret ptr %6
}

; Function Attrs: nounwind uwtable
define internal ptr @_SPI_procmem() #0 {
  %1 = load ptr, ptr @_SPI_current, align 8
  %2 = getelementptr inbounds nuw %struct._SPI_connection, ptr %1, i32 0, i32 4
  %3 = load ptr, ptr %2, align 8
  %4 = call ptr @MemoryContextSwitchTo(ptr noundef %3)
  ret ptr %4
}

; Function Attrs: nounwind uwtable
define internal ptr @_SPI_execmem() #0 {
  %1 = load ptr, ptr @_SPI_current, align 8
  %2 = getelementptr inbounds nuw %struct._SPI_connection, ptr %1, i32 0, i32 5
  %3 = load ptr, ptr %2, align 8
  %4 = call ptr @MemoryContextSwitchTo(ptr noundef %3)
  ret ptr %4
}

; Function Attrs: nounwind uwtable
define internal i32 @_SPI_end_call(i1 noundef zeroext %0) #0 {
  %2 = alloca i8, align 1
  %3 = zext i1 %0 to i8
  store i8 %3, ptr %2, align 1
  %4 = load i8, ptr %2, align 1, !range !4, !noundef !5
  %5 = trunc i8 %4 to i1
  br i1 %5, label %6, label %13

6:                                                ; preds = %1
  %7 = call ptr @_SPI_procmem()
  %8 = load ptr, ptr @_SPI_current, align 8
  %9 = getelementptr inbounds nuw %struct._SPI_connection, ptr %8, i32 0, i32 2
  store i32 0, ptr %9, align 8
  %10 = load ptr, ptr @_SPI_current, align 8
  %11 = getelementptr inbounds nuw %struct._SPI_connection, ptr %10, i32 0, i32 5
  %12 = load ptr, ptr %11, align 8
  call void @MemoryContextReset(ptr noundef %12)
  br label %13

13:                                               ; preds = %6, %1
  ret i32 0
}

; Function Attrs: nounwind uwtable
define internal i32 @_SPI_begin_call(i1 noundef zeroext %0) #0 {
  %2 = alloca i32, align 4
  %3 = alloca i8, align 1
  %4 = zext i1 %0 to i8
  store i8 %4, ptr %3, align 1
  %5 = load ptr, ptr @_SPI_current, align 8
  %6 = icmp eq ptr %5, null
  br i1 %6, label %7, label %8

7:                                                ; preds = %1
  store i32 -4, ptr %2, align 4
  br label %17

8:                                                ; preds = %1
  %9 = load i8, ptr %3, align 1, !range !4, !noundef !5
  %10 = trunc i8 %9 to i1
  br i1 %10, label %11, label %16

11:                                               ; preds = %8
  %12 = call i32 @GetCurrentSubTransactionId()
  %13 = load ptr, ptr @_SPI_current, align 8
  %14 = getelementptr inbounds nuw %struct._SPI_connection, ptr %13, i32 0, i32 2
  store i32 %12, ptr %14, align 8
  %15 = call ptr @_SPI_execmem()
  br label %16

16:                                               ; preds = %11, %8
  store i32 0, ptr %2, align 4
  br label %17

17:                                               ; preds = %16, %7
  %18 = load i32, ptr %2, align 4
  ret i32 %18
}

; Function Attrs: nounwind uwtable
define dso_local ptr @SPI_prepare_params(ptr noundef %0, ptr noundef %1, ptr noundef %2, i32 noundef %3) #0 {
  %5 = alloca ptr, align 8
  %6 = alloca ptr, align 8
  %7 = alloca ptr, align 8
  %8 = alloca ptr, align 8
  %9 = alloca i32, align 4
  %10 = alloca %struct._SPI_plan, align 8
  %11 = alloca ptr, align 8
  %12 = alloca i32, align 4
  store ptr %0, ptr %6, align 8
  store ptr %1, ptr %7, align 8
  store ptr %2, ptr %8, align 8
  store i32 %3, ptr %9, align 4
  call void @llvm.lifetime.start.p0(i64 64, ptr %10) #9
  call void @llvm.lifetime.start.p0(i64 8, ptr %11) #9
  %13 = load ptr, ptr %6, align 8
  %14 = icmp eq ptr %13, null
  br i1 %14, label %15, label %16

15:                                               ; preds = %4
  store i32 -6, ptr @SPI_result, align 4
  store ptr null, ptr %5, align 8
  store i32 1, ptr %12, align 4
  br label %36

16:                                               ; preds = %4
  %17 = call i32 @_SPI_begin_call(i1 noundef zeroext true)
  store i32 %17, ptr @SPI_result, align 4
  %18 = load i32, ptr @SPI_result, align 4
  %19 = icmp slt i32 %18, 0
  br i1 %19, label %20, label %21

20:                                               ; preds = %16
  store ptr null, ptr %5, align 8
  store i32 1, ptr %12, align 4
  br label %36

21:                                               ; preds = %16
  call void @llvm.memset.p0.i64(ptr align 8 %10, i8 0, i64 64, i1 false)
  %22 = getelementptr inbounds nuw %struct._SPI_plan, ptr %10, i32 0, i32 0
  store i32 569278163, ptr %22, align 8
  %23 = getelementptr inbounds nuw %struct._SPI_plan, ptr %10, i32 0, i32 5
  store i32 0, ptr %23, align 8
  %24 = load i32, ptr %9, align 4
  %25 = getelementptr inbounds nuw %struct._SPI_plan, ptr %10, i32 0, i32 6
  store i32 %24, ptr %25, align 4
  %26 = getelementptr inbounds nuw %struct._SPI_plan, ptr %10, i32 0, i32 7
  store i32 0, ptr %26, align 8
  %27 = getelementptr inbounds nuw %struct._SPI_plan, ptr %10, i32 0, i32 8
  store ptr null, ptr %27, align 8
  %28 = load ptr, ptr %7, align 8
  %29 = getelementptr inbounds nuw %struct._SPI_plan, ptr %10, i32 0, i32 9
  store ptr %28, ptr %29, align 8
  %30 = load ptr, ptr %8, align 8
  %31 = getelementptr inbounds nuw %struct._SPI_plan, ptr %10, i32 0, i32 10
  store ptr %30, ptr %31, align 8
  %32 = load ptr, ptr %6, align 8
  call void @_SPI_prepare_plan(ptr noundef %32, ptr noundef %10)
  %33 = call ptr @_SPI_make_plan_non_temp(ptr noundef %10)
  store ptr %33, ptr %11, align 8
  %34 = call i32 @_SPI_end_call(i1 noundef zeroext true)
  %35 = load ptr, ptr %11, align 8
  store ptr %35, ptr %5, align 8
  store i32 1, ptr %12, align 4
  br label %36

36:                                               ; preds = %21, %20, %15
  call void @llvm.lifetime.end.p0(i64 8, ptr %11) #9
  call void @llvm.lifetime.end.p0(i64 64, ptr %10) #9
  %37 = load ptr, ptr %5, align 8
  ret ptr %37
}