; Function Attrs: nounwind uwtable
define dso_local noundef ptr @SPI_prepare_params(ptr noundef %0, ptr noundef %1, ptr noundef %2, i32 noundef %3) local_unnamed_addr #0 {
  %5 = alloca %struct._SPI_plan, align 8
  call void @llvm.lifetime.start.p0(i64 64, ptr nonnull %5) #15
  %6 = icmp eq ptr %0, null
  br i1 %6, label %7, label %8

7:                                                ; preds = %4
  store i32 -6, ptr @SPI_result, align 4
  br label %26

8:                                                ; preds = %4
  %9 = load ptr, ptr @_SPI_current, align 8
  %.not = icmp eq ptr %9, null
  br i1 %.not, label %_SPI_begin_call.exit, label %_SPI_begin_call.exit.thread

_SPI_begin_call.exit.thread:                      ; preds = %8
  %10 = tail call i32 @GetCurrentSubTransactionId() #15
  %11 = load ptr, ptr @_SPI_current, align 8
  %12 = getelementptr inbounds nuw i8, ptr %11, i64 16
  store i32 %10, ptr %12, align 8
  %13 = getelementptr inbounds nuw i8, ptr %11, i64 40
  %14 = load ptr, ptr %13, align 8
  store ptr %14, ptr @CurrentMemoryContext, align 8
  store i32 0, ptr @SPI_result, align 4
  call void @llvm.memset.p0.i64(ptr noundef nonnull align 8 dereferenceable(64) %5, i8 0, i64 40, i1 false)
  store i32 569278163, ptr %5, align 8
  %15 = getelementptr inbounds nuw i8, ptr %5, i64 28
  store i32 %3, ptr %15, align 4
  %16 = getelementptr inbounds nuw i8, ptr %5, i64 40
  store ptr null, ptr %16, align 8
  %17 = getelementptr inbounds nuw i8, ptr %5, i64 48
  store ptr %1, ptr %17, align 8
  %18 = getelementptr inbounds nuw i8, ptr %5, i64 56
  store ptr %2, ptr %18, align 8
  call fastcc void @_SPI_prepare_plan(ptr noundef %0, ptr noundef %5)
  %19 = call fastcc ptr @_SPI_make_plan_non_temp(ptr noundef %5)
  %20 = load ptr, ptr @_SPI_current, align 8
  %21 = getelementptr inbounds nuw i8, ptr %20, i64 32
  %22 = load ptr, ptr %21, align 8
  store ptr %22, ptr @CurrentMemoryContext, align 8
  %23 = getelementptr inbounds nuw i8, ptr %20, i64 16
  store i32 0, ptr %23, align 8
  %24 = getelementptr inbounds nuw i8, ptr %20, i64 40
  %25 = load ptr, ptr %24, align 8
  tail call void @MemoryContextReset(ptr noundef %25) #15
  br label %26

_SPI_begin_call.exit:                             ; preds = %8
  store i32 -4, ptr @SPI_result, align 4
  br label %26

26:                                               ; preds = %_SPI_begin_call.exit, %_SPI_begin_call.exit.thread, %7
  %.0 = phi ptr [ null, %7 ], [ %19, %_SPI_begin_call.exit.thread ], [ null, %_SPI_begin_call.exit ]
  call void @llvm.lifetime.end.p0(i64 64, ptr nonnull %5) #15
  ret ptr %.0
}